; Function Attrs: mustprogress nounwind uwtable
define dso_local void @_ZN4base9HistogramD0Ev(ptr noundef nonnull align 8 dereferenceable(81) %this) unnamed_addr #11 align 2 personality ptr @__gxx_personality_v0 {
entry:
  store ptr getelementptr inbounds ({ [25 x ptr] }, ptr @_ZTVN4base9HistogramE, i64 0, i32 0, i64 2), ptr %this, align 8
  %logged_samples_.i = getelementptr inbounds i8, ptr %this, i64 72
  %0 = load ptr, ptr %logged_samples_.i, align 8
  %cmp.not.i.i = icmp eq ptr %0, null
  br i1 %cmp.not.i.i, label %_ZNSt10unique_ptrIN4base16HistogramSamplesESt14default_deleteIS1_EED2Ev.exit.i, label %_ZNKSt14default_deleteIN4base16HistogramSamplesEEclEPS1_.exit.i.i

_ZNKSt14default_deleteIN4base16HistogramSamplesEEclEPS1_.exit.i.i: ; preds = %entry
  %vtable.i.i.i = load ptr, ptr %0, align 8
  %vfn.i.i.i = getelementptr inbounds i8, ptr %vtable.i.i.i, i64 8
  %1 = load ptr, ptr %vfn.i.i.i, align 8
  tail call void %1(ptr noundef nonnull align 8 dereferenceable(40) %0) #19
  br label %_ZNSt10unique_ptrIN4base16HistogramSamplesESt14default_deleteIS1_EED2Ev.exit.i

_ZNSt10unique_ptrIN4base16HistogramSamplesESt14default_deleteIS1_EED2Ev.exit.i: ; preds = %_ZNKSt14default_deleteIN4base16HistogramSamplesEEclEPS1_.exit.i.i, %entry
  store ptr null, ptr %logged_samples_.i, align 8
  %samples_.i = getelementptr inbounds i8, ptr %this, i64 64
  %2 = load ptr, ptr %samples_.i, align 8
  %cmp.not.i1.i = icmp eq ptr %2, null
  br i1 %cmp.not.i1.i, label %_ZN4base9HistogramD2Ev.exit, label %_ZNKSt14default_deleteIN4base12SampleVectorEEclEPS1_.exit.i.i

_ZNKSt14default_deleteIN4base12SampleVectorEEclEPS1_.exit.i.i: ; preds = %_ZNSt10unique_ptrIN4base16HistogramSamplesESt14default_deleteIS1_EED2Ev.exit.i
  %vtable.i.i2.i = load ptr, ptr %2, align 8
  %vfn.i.i3.i = getelementptr inbounds i8, ptr %vtable.i.i2.i, i64 8
  %3 = load ptr, ptr %vfn.i.i3.i, align 8
  tail call void %3(ptr noundef nonnull align 8 dereferenceable(88) %2) #19
  br label %_ZN4base9HistogramD2Ev.exit

_ZN4base9HistogramD2Ev.exit:                      ; preds = %_ZNSt10unique_ptrIN4base16HistogramSamplesESt14default_deleteIS1_EED2Ev.exit.i, %_ZNKSt14default_deleteIN4base12SampleVectorEEclEPS1_.exit.i.i
  store ptr null, ptr %samples_.i, align 8
  tail call void @_ZN4base13HistogramBaseD2Ev(ptr noundef nonnull align 8 dereferenceable(44) %this) #19
  tail call void @_ZdlPv(ptr noundef nonnull %this) #22
  ret void
}